target datalayout = "e-m:e-p270:32:32-p271:32:32-p272:64:64-i64:64-i128:128-f80:128-n8:16:32:64-S128"
target triple = "x86_64-pc-linux-gnu"

%"struct.llvm::DWARFDebugLine::ContentTypeTracker" = type { i8, i8, i8, i8 }
%"struct.llvm::DWARFDebugLine::Prologue" = type { i64, %"struct.llvm::dwarf::FormParams", i64, i8, i8, i8, i8, i8, i8, i8, %"struct.llvm::DWARFDebugLine::ContentTypeTracker", %"class.std::vector", %"class.std::vector.0", %"class.std::vector.5" }
%"struct.llvm::dwarf::FormParams" = type <{ i16, i8, i8, i8, i8 }>
%"class.std::vector" = type { %"struct.std::_Vector_base" }
%"struct.std::_Vector_base" = type { %"struct.std::_Vector_base<unsigned char, std::allocator<unsigned char>>::_Vector_impl" }
%"struct.std::_Vector_base<unsigned char, std::allocator<unsigned char>>::_Vector_impl" = type { %"struct.std::_Vector_base<unsigned char, std::allocator<unsigned char>>::_Vector_impl_data" }
%"struct.std::_Vector_base<unsigned char, std::allocator<unsigned char>>::_Vector_impl_data" = type { ptr, ptr, ptr }
%"class.std::vector.0" = type { %"struct.std::_Vector_base.1" }
%"struct.std::_Vector_base.1" = type { %"struct.std::_Vector_base<llvm::DWARFFormValue, std::allocator<llvm::DWARFFormValue>>::_Vector_impl" }
%"struct.std::_Vector_base<llvm::DWARFFormValue, std::allocator<llvm::DWARFFormValue>>::_Vector_impl" = type { %"struct.std::_Vector_base<llvm::DWARFFormValue, std::allocator<llvm::DWARFFormValue>>::_Vector_impl_data" }
%"struct.std::_Vector_base<llvm::DWARFFormValue, std::allocator<llvm::DWARFFormValue>>::_Vector_impl_data" = type { ptr, ptr, ptr }
%"class.std::vector.5" = type { %"struct.std::_Vector_base.6" }
%"struct.std::_Vector_base.6" = type { %"struct.std::_Vector_base<llvm::DWARFDebugLine::FileNameEntry, std::allocator<llvm::DWARFDebugLine::FileNameEntry>>::_Vector_impl" }
%"struct.std::_Vector_base<llvm::DWARFDebugLine::FileNameEntry, std::allocator<llvm::DWARFDebugLine::FileNameEntry>>::_Vector_impl" = type { %"struct.std::_Vector_base<llvm::DWARFDebugLine::FileNameEntry, std::allocator<llvm::DWARFDebugLine::FileNameEntry>>::_Vector_impl_data" }
%"struct.std::_Vector_base<llvm::DWARFDebugLine::FileNameEntry, std::allocator<llvm::DWARFDebugLine::FileNameEntry>>::_Vector_impl_data" = type { ptr, ptr, ptr }

; Function Attrs: mustprogress nounwind uwtable
define linkonce_odr hidden noundef i64 @_ZNKSt6vectorIN4llvm14DWARFDebugLine13FileNameEntryESaIS2_EE4sizeEv(ptr noundef nonnull align 8 dereferenceable(24) %0) #0 comdat align 2 {
  %2 = alloca ptr, align 8
  store ptr %0, ptr %2, align 8
  %3 = load ptr, ptr %2, align 8
  %4 = getelementptr inbounds nuw %"struct.std::_Vector_base.6", ptr %3, i32 0, i32 0
  %5 = getelementptr inbounds nuw %"struct.std::_Vector_base<llvm::DWARFDebugLine::FileNameEntry, std::allocator<llvm::DWARFDebugLine::FileNameEntry>>::_Vector_impl_data", ptr %4, i32 0, i32 1
  %6 = load ptr, ptr %5, align 8
  %7 = getelementptr inbounds nuw %"struct.std::_Vector_base.6", ptr %3, i32 0, i32 0
  %8 = getelementptr inbounds nuw %"struct.std::_Vector_base<llvm::DWARFDebugLine::FileNameEntry, std::allocator<llvm::DWARFDebugLine::FileNameEntry>>::_Vector_impl_data", ptr %7, i32 0, i32 0
  %9 = load ptr, ptr %8, align 8
  %10 = ptrtoint ptr %6 to i64
  %11 = ptrtoint ptr %9 to i64
  %12 = sub i64 %10, %11
  %13 = sdiv exact i64 %12, 136
  ret i64 %13
}

; Function Attrs: mustprogress nounwind uwtable
define linkonce_odr hidden noundef zeroext i16 @_ZNK4llvm14DWARFDebugLine8Prologue10getVersionEv(ptr noundef nonnull align 8 dereferenceable(112) %0) #0 comdat align 2 {
  %2 = alloca ptr, align 8
  store ptr %0, ptr %2, align 8
  %3 = load ptr, ptr %2, align 8
  %4 = getelementptr inbounds nuw %"struct.llvm::DWARFDebugLine::Prologue", ptr %3, i32 0, i32 1
  %5 = getelementptr inbounds nuw %"struct.llvm::dwarf::FormParams", ptr %4, i32 0, i32 0
  %6 = load i16, ptr %5, align 8
  ret i16 %6
}

; Function Attrs: mustprogress nounwind uwtable
define dso_local noundef zeroext i1 @_ZNK4llvm14DWARFDebugLine8Prologue14hasFileAtIndexEm(ptr noundef nonnull align 8 dereferenceable(112) %0, i64 noundef %1) #0 align 2 {
  %3 = alloca i1, align 1
  %4 = alloca ptr, align 8
  %5 = alloca i64, align 8
  %6 = alloca i16, align 2
  store ptr %0, ptr %4, align 8
  store i64 %1, ptr %5, align 8
  %7 = load ptr, ptr %4, align 8
  %8 = call noundef zeroext i16 @_ZNK4llvm14DWARFDebugLine8Prologue10getVersionEv(ptr noundef nonnull align 8 dereferenceable(112) %7)
  store i16 %8, ptr %6, align 2
  %9 = load i16, ptr %6, align 2
  %10 = zext i16 %9 to i32
  %11 = icmp sge i32 %10, 5
  br i1 %11, label %12, label %17

12:                                               ; preds = %2
  %13 = load i64, ptr %5, align 8
  %14 = getelementptr inbounds nuw %"struct.llvm::DWARFDebugLine::Prologue", ptr %7, i32 0, i32 13
  %15 = call noundef i64 @_ZNKSt6vectorIN4llvm14DWARFDebugLine13FileNameEntryESaIS2_EE4sizeEv(ptr noundef nonnull align 8 dereferenceable(24) %14) #14
  %16 = icmp ult i64 %13, %15
  store i1 %16, ptr %3, align 1
  br label %27

17:                                               ; preds = %2
  %18 = load i64, ptr %5, align 8
  %19 = icmp ne i64 %18, 0
  br i1 %19, label %20, label %25

20:                                               ; preds = %17
  %21 = load i64, ptr %5, align 8
  %22 = getelementptr inbounds nuw %"struct.llvm::DWARFDebugLine::Prologue", ptr %7, i32 0, i32 13
  %23 = call noundef i64 @_ZNKSt6vectorIN4llvm14DWARFDebugLine13FileNameEntryESaIS2_EE4sizeEv(ptr noundef nonnull align 8 dereferenceable(24) %22) #14
  %24 = icmp ule i64 %21, %23
  br label %25

25:                                               ; preds = %20, %17
  %26 = phi i1 [ false, %17 ], [ %24, %20 ]
  store i1 %26, ptr %3, align 1
  br label %27

27:                                               ; preds = %25, %12
  %28 = load i1, ptr %3, align 1
  ret i1 %28
}