; Function Attrs: mustprogress nofree norecurse nosync nounwind willreturn memory(argmem: read) uwtable
define dso_local noundef zeroext i1 @_ZNK4llvm14DWARFDebugLine8Prologue14hasFileAtIndexEm(ptr noundef nonnull readonly align 8 captures(none) dereferenceable(112) %0, i64 noundef %1) local_unnamed_addr #2 align 2 {
  %3 = getelementptr inbounds nuw i8, ptr %0, i64 8
  %4 = load i16, ptr %3, align 8
  %5 = icmp ugt i16 %4, 4
  br i1 %5, label %6, label %16

6:                                                ; preds = %2
  %7 = getelementptr inbounds nuw i8, ptr %0, i64 88
  %8 = getelementptr inbounds nuw i8, ptr %0, i64 96
  %9 = load ptr, ptr %8, align 8
  %10 = load ptr, ptr %7, align 8
  %11 = ptrtoint ptr %9 to i64
  %12 = ptrtoint ptr %10 to i64
  %13 = sub i64 %11, %12
  %14 = sdiv exact i64 %13, 136
  %15 = icmp ult i64 %1, %14
  br label %27

16:                                               ; preds = %2
  %.not = icmp eq i64 %1, 0
  br i1 %.not, label %27, label %17

17:                                               ; preds = %16
  %18 = getelementptr inbounds nuw i8, ptr %0, i64 88
  %19 = getelementptr inbounds nuw i8, ptr %0, i64 96
  %20 = load ptr, ptr %19, align 8
  %21 = load ptr, ptr %18, align 8
  %22 = ptrtoint ptr %20 to i64
  %23 = ptrtoint ptr %21 to i64
  %24 = sub i64 %22, %23
  %25 = sdiv exact i64 %24, 136
  %26 = icmp ule i64 %1, %25
  br label %27

27:                                               ; preds = %16, %17, %6
  %.0 = phi i1 [ %15, %6 ], [ false, %16 ], [ %26, %17 ]
  ret i1 %.0
}